target datalayout = "e-m:e-p270:32:32-p271:32:32-p272:64:64-i64:64-i128:128-f80:128-n8:16:32:64-S128"
target triple = "x86_64-pc-linux-gnu"

@.str.9 = private unnamed_addr constant [27 x i8] c"%s:%d: parser warning : %s\00", align 1
@.str.10 = private unnamed_addr constant [25 x i8] c"%s:%d: parser error : %s\00", align 1
@.str.11 = private unnamed_addr constant [29 x i8] c"%s:%d: unknown severity : %s\00", align 1

; Function Attrs: nounwind uwtable
define internal void @msxml_error_handler(ptr noundef %0, ptr noundef %1, i32 noundef %2, ptr noundef %3) #0 {
  %5 = alloca ptr, align 8
  %6 = alloca ptr, align 8
  %7 = alloca i32, align 4
  %8 = alloca ptr, align 8
  %9 = alloca i32, align 4
  %10 = alloca ptr, align 8
  store ptr %0, ptr %5, align 8
  store ptr %1, ptr %6, align 8
  store i32 %2, ptr %7, align 4
  store ptr %3, ptr %8, align 8
  %11 = load ptr, ptr %8, align 8
  %12 = call i32 @xmlTextReaderLocatorLineNumber(ptr noundef %11)
  store i32 %12, ptr %9, align 4
  %13 = load ptr, ptr %8, align 8
  %14 = call ptr @xmlTextReaderLocatorBaseURI(ptr noundef %13)
  store ptr %14, ptr %10, align 8
  %15 = load i32, ptr %7, align 4
  switch i32 %15, label %24 [
    i32 3, label %16
    i32 1, label %16
    i32 4, label %20
    i32 2, label %20
  ]

16:                                               ; preds = %4, %4
  %17 = load ptr, ptr %10, align 8
  %18 = load i32, ptr %9, align 4
  %19 = load ptr, ptr %6, align 8
  call void (ptr, ...) @cli_dbgmsg(ptr noundef @.str.9, ptr noundef %17, i32 noundef %18, ptr noundef %19)
  br label %28

20:                                               ; preds = %4, %4
  %21 = load ptr, ptr %10, align 8
  %22 = load i32, ptr %9, align 4
  %23 = load ptr, ptr %6, align 8
  call void (ptr, ...) @cli_dbgmsg(ptr noundef @.str.10, ptr noundef %21, i32 noundef %22, ptr noundef %23)
  br label %28

24:                                               ; preds = %4
  %25 = load ptr, ptr %10, align 8
  %26 = load i32, ptr %9, align 4
  %27 = load ptr, ptr %6, align 8
  call void (ptr, ...) @cli_dbgmsg(ptr noundef @.str.11, ptr noundef %25, i32 noundef %26, ptr noundef %27)
  br label %28

28:                                               ; preds = %24, %20, %16
  %29 = load ptr, ptr %10, align 8
  call void @free(ptr noundef %29) #5
  ret void
}