; Function Attrs: nounwind uwtable
define internal void @msxml_error_handler(ptr nocapture readnone %0, ptr noundef %1, i32 noundef %2, ptr noundef %3) #0 {
  %5 = tail call i32 @xmlTextReaderLocatorLineNumber(ptr noundef %3) #8
  %6 = tail call ptr @xmlTextReaderLocatorBaseURI(ptr noundef %3) #8
  %switch.tableidx = add i32 %2, -1
  %7 = icmp ult i32 %switch.tableidx, 4
  br i1 %7, label %switch.lookup, label %9

switch.lookup:                                    ; preds = %4
  %8 = zext nneg i32 %switch.tableidx to i64
  %switch.gep = getelementptr inbounds [4 x ptr], ptr @switch.table.msxml_error_handler, i64 0, i64 %8
  %switch.load = load ptr, ptr %switch.gep, align 8
  br label %9

9:                                                ; preds = %4, %switch.lookup
  %.str.11.sink = phi ptr [ %switch.load, %switch.lookup ], [ @.str.11, %4 ]
  tail call void (ptr, ...) @cli_dbgmsg(ptr noundef nonnull %.str.11.sink, ptr noundef %6, i32 noundef %5, ptr noundef %1) #8
  tail call void @free(ptr noundef %6) #8
  ret void
}